; Function Attrs: mustprogress uwtable
define noundef i32 @_ZN6duckdb13ParquetWriter23DuckDBTypeToParquetTypeERKNS_11LogicalTypeE(ptr noundef nonnull align 8 dereferenceable(24) %0) local_unnamed_addr #3 align 2 personality ptr @__gxx_personality_v0 {
  %2 = alloca i32, align 4
  %3 = alloca %"class.std::__cxx11::basic_string", align 8
  %4 = alloca %"class.std::allocator.4", align 1
  %5 = alloca %"class.std::__cxx11::basic_string", align 8
  call void @llvm.lifetime.start.p0(i64 4, ptr nonnull %2) #27
  %6 = call noundef zeroext i1 @_ZN6duckdb13ParquetWriter17TryGetParquetTypeERKNS_11LogicalTypeENS_12optional_ptrIN14duckdb_parquet4Type4typeELb1EEE(ptr noundef nonnull align 8 dereferenceable(24) %0, ptr nonnull %2)
  br i1 %6, label %7, label %9

7:                                                ; preds = %1
  %8 = load i32, ptr %2, align 4, !tbaa !62
  call void @llvm.lifetime.end.p0(i64 4, ptr nonnull %2) #27
  ret i32 %8

9:                                                ; preds = %1
  %10 = call ptr @__cxa_allocate_exception(i64 16) #27
  call void @llvm.lifetime.start.p0(i64 32, ptr nonnull %3) #27
  call void @llvm.lifetime.start.p0(i64 1, ptr nonnull %4) #27
  invoke void @_ZNSt7__cxx1112basic_stringIcSt11char_traitsIcESaIcEEC2EPKcRKS3_(ptr noundef nonnull align 8 dereferenceable(32) %3, ptr noundef nonnull @.str.1, ptr noundef nonnull align 1 dereferenceable(1) %4)
          to label %11 unwind label %_ZNSt7__cxx1112basic_stringIcSt11char_traitsIcESaIcEED2Ev.exit12.thread

11:                                               ; preds = %9
  invoke void @_ZNK6duckdb11LogicalType8ToStringB5cxx11Ev(ptr dead_on_unwind nonnull writable sret(%"class.std::__cxx11::basic_string") align 8 %5, ptr noundef nonnull align 8 dereferenceable(24) %0)
          to label %12 unwind label %_ZNSt7__cxx1112basic_stringIcSt11char_traitsIcESaIcEED2Ev.exit.thread

12:                                               ; preds = %11
  invoke void @_ZN6duckdb23NotImplementedExceptionC2IJNSt7__cxx1112basic_stringIcSt11char_traitsIcESaIcEEEEEERKS7_DpT_(ptr noundef nonnull align 8 dereferenceable(16) %10, ptr noundef nonnull align 8 dereferenceable(32) %3, ptr noundef nonnull %5)
          to label %13 unwind label %15

13:                                               ; preds = %12
  invoke void @__cxa_throw(ptr nonnull %10, ptr nonnull @_ZTIN6duckdb23NotImplementedExceptionE, ptr nonnull @_ZNSt13runtime_errorD2Ev) #29
          to label %38 unwind label %15

_ZNSt7__cxx1112basic_stringIcSt11char_traitsIcESaIcEED2Ev.exit12.thread: ; preds = %9
  %14 = landingpad { ptr, i32 }
          cleanup
  br label %.sink.split

15:                                               ; preds = %13, %12
  %.0 = phi i1 [ false, %13 ], [ true, %12 ]
  %16 = landingpad { ptr, i32 }
          cleanup
  %17 = load ptr, ptr %5, align 8, !tbaa !44
  %18 = getelementptr inbounds nuw i8, ptr %5, i64 16
  %19 = icmp eq ptr %17, %18
  br i1 %19, label %_ZNKSt7__cxx1112basic_stringIcSt11char_traitsIcESaIcEE11_M_is_localEv.exit.thread.i.i, label %_ZNKSt7__cxx1112basic_stringIcSt11char_traitsIcESaIcEE11_M_is_localEv.exit.i.i

_ZNKSt7__cxx1112basic_stringIcSt11char_traitsIcESaIcEE11_M_is_localEv.exit.thread.i.i: ; preds = %15
  %20 = getelementptr inbounds nuw i8, ptr %5, i64 8
  %21 = load i64, ptr %20, align 8, !tbaa !48
  %22 = icmp ult i64 %21, 16
  call void @llvm.assume(i1 %22)
  br label %_ZNSt7__cxx1112basic_stringIcSt11char_traitsIcESaIcEED2Ev.exit

_ZNKSt7__cxx1112basic_stringIcSt11char_traitsIcESaIcEE11_M_is_localEv.exit.i.i: ; preds = %15
  call void @_ZdlPv(ptr noundef %17) #28
  br label %_ZNSt7__cxx1112basic_stringIcSt11char_traitsIcESaIcEED2Ev.exit

_ZNSt7__cxx1112basic_stringIcSt11char_traitsIcESaIcEED2Ev.exit: ; preds = %_ZNKSt7__cxx1112basic_stringIcSt11char_traitsIcESaIcEE11_M_is_localEv.exit.i.i, %_ZNKSt7__cxx1112basic_stringIcSt11char_traitsIcESaIcEE11_M_is_localEv.exit.thread.i.i
  %23 = load ptr, ptr %3, align 8, !tbaa !44
  %24 = getelementptr inbounds nuw i8, ptr %3, i64 16
  %25 = icmp eq ptr %23, %24
  br i1 %25, label %_ZNKSt7__cxx1112basic_stringIcSt11char_traitsIcESaIcEE11_M_is_localEv.exit.thread.i.i11, label %_ZNSt7__cxx1112basic_stringIcSt11char_traitsIcESaIcEED2Ev.exit12

_ZNSt7__cxx1112basic_stringIcSt11char_traitsIcESaIcEED2Ev.exit.thread: ; preds = %11
  %26 = landingpad { ptr, i32 }
          cleanup
  %27 = load ptr, ptr %3, align 8, !tbaa !44
  %28 = getelementptr inbounds nuw i8, ptr %3, i64 16
  %29 = icmp eq ptr %27, %28
  br i1 %29, label %_ZNKSt7__cxx1112basic_stringIcSt11char_traitsIcESaIcEE11_M_is_localEv.exit.thread.i.i11.thread, label %_ZNSt7__cxx1112basic_stringIcSt11char_traitsIcESaIcEED2Ev.exit12.thread23

_ZNKSt7__cxx1112basic_stringIcSt11char_traitsIcESaIcEE11_M_is_localEv.exit.thread.i.i11.thread: ; preds = %_ZNSt7__cxx1112basic_stringIcSt11char_traitsIcESaIcEED2Ev.exit.thread
  %30 = getelementptr inbounds nuw i8, ptr %3, i64 8
  %31 = load i64, ptr %30, align 8, !tbaa !48
  %32 = icmp ult i64 %31, 16
  call void @llvm.assume(i1 %32)
  br label %.sink.split

_ZNSt7__cxx1112basic_stringIcSt11char_traitsIcESaIcEED2Ev.exit12.thread23: ; preds = %_ZNSt7__cxx1112basic_stringIcSt11char_traitsIcESaIcEED2Ev.exit.thread
  call void @_ZdlPv(ptr noundef %27) #28
  br label %.sink.split

_ZNKSt7__cxx1112basic_stringIcSt11char_traitsIcESaIcEE11_M_is_localEv.exit.thread.i.i11: ; preds = %_ZNSt7__cxx1112basic_stringIcSt11char_traitsIcESaIcEED2Ev.exit
  %33 = getelementptr inbounds nuw i8, ptr %3, i64 8
  %34 = load i64, ptr %33, align 8, !tbaa !48
  %35 = icmp ult i64 %34, 16
  call void @llvm.assume(i1 %35)
  call void @llvm.lifetime.end.p0(i64 1, ptr nonnull %4) #27
  call void @llvm.lifetime.end.p0(i64 32, ptr nonnull %3) #27
  br i1 %.0, label %36, label %37

_ZNSt7__cxx1112basic_stringIcSt11char_traitsIcESaIcEED2Ev.exit12: ; preds = %_ZNSt7__cxx1112basic_stringIcSt11char_traitsIcESaIcEED2Ev.exit
  call void @_ZdlPv(ptr noundef %23) #28
  call void @llvm.lifetime.end.p0(i64 1, ptr nonnull %4) #27
  call void @llvm.lifetime.end.p0(i64 32, ptr nonnull %3) #27
  br i1 %.0, label %36, label %37

.sink.split:                                      ; preds = %_ZNSt7__cxx1112basic_stringIcSt11char_traitsIcESaIcEED2Ev.exit12.thread, %_ZNSt7__cxx1112basic_stringIcSt11char_traitsIcESaIcEED2Ev.exit12.thread23, %_ZNKSt7__cxx1112basic_stringIcSt11char_traitsIcESaIcEE11_M_is_localEv.exit.thread.i.i11.thread
  %.pn.pn16.ph = phi { ptr, i32 } [ %26, %_ZNKSt7__cxx1112basic_stringIcSt11char_traitsIcESaIcEE11_M_is_localEv.exit.thread.i.i11.thread ], [ %26, %_ZNSt7__cxx1112basic_stringIcSt11char_traitsIcESaIcEED2Ev.exit12.thread23 ], [ %14, %_ZNSt7__cxx1112basic_stringIcSt11char_traitsIcESaIcEED2Ev.exit12.thread ]
  call void @llvm.lifetime.end.p0(i64 1, ptr nonnull %4) #27
  call void @llvm.lifetime.end.p0(i64 32, ptr nonnull %3) #27
  br label %36

36:                                               ; preds = %.sink.split, %_ZNKSt7__cxx1112basic_stringIcSt11char_traitsIcESaIcEE11_M_is_localEv.exit.thread.i.i11, %_ZNSt7__cxx1112basic_stringIcSt11char_traitsIcESaIcEED2Ev.exit12
  %.pn.pn16 = phi { ptr, i32 } [ %16, %_ZNSt7__cxx1112basic_stringIcSt11char_traitsIcESaIcEED2Ev.exit12 ], [ %16, %_ZNKSt7__cxx1112basic_stringIcSt11char_traitsIcESaIcEE11_M_is_localEv.exit.thread.i.i11 ], [ %.pn.pn16.ph, %.sink.split ]
  call void @__cxa_free_exception(ptr %10) #27
  br label %37

37:                                               ; preds = %_ZNKSt7__cxx1112basic_stringIcSt11char_traitsIcESaIcEE11_M_is_localEv.exit.thread.i.i11, %36, %_ZNSt7__cxx1112basic_stringIcSt11char_traitsIcESaIcEED2Ev.exit12
  %.pn.pn15 = phi { ptr, i32 } [ %.pn.pn16, %36 ], [ %16, %_ZNSt7__cxx1112basic_stringIcSt11char_traitsIcESaIcEED2Ev.exit12 ], [ %16, %_ZNKSt7__cxx1112basic_stringIcSt11char_traitsIcESaIcEE11_M_is_localEv.exit.thread.i.i11 ]
  call void @llvm.lifetime.end.p0(i64 4, ptr nonnull %2) #27
  resume { ptr, i32 } %.pn.pn15

38:                                               ; preds = %13
  unreachable
}